; Function Attrs: mustprogress uwtable
define hidden void @_ZN7bit2int5visitEP10quantifier(ptr noundef nonnull align 8 dereferenceable(296) %0, ptr noundef %1) local_unnamed_addr #3 align 2 personality ptr @__gxx_personality_v0 {
  %3 = alloca ptr, align 8
  %4 = alloca ptr, align 8
  %5 = alloca %class.obj_ref, align 8
  call void @llvm.lifetime.start.p0(i64 16, ptr nonnull %5) #19
  %6 = load ptr, ptr %0, align 8, !tbaa !61
  store ptr null, ptr %5, align 8, !tbaa !11
  %7 = getelementptr inbounds nuw i8, ptr %5, i64 8
  store ptr %6, ptr %7, align 8, !tbaa !3
  %8 = getelementptr inbounds nuw i8, ptr %1, i64 24
  %9 = load ptr, ptr %8, align 8, !tbaa !200
  call void @llvm.lifetime.start.p0(i64 8, ptr nonnull %3) #19
  store ptr null, ptr %3, align 8, !tbaa !58
  call void @llvm.lifetime.start.p0(i64 8, ptr nonnull %4) #19
  store ptr null, ptr %4, align 8, !tbaa !59
  %10 = getelementptr inbounds nuw i8, ptr %0, i64 208
  invoke void @_ZNK8expr_map3getEP4exprRS1_RP3app(ptr noundef nonnull align 8 dereferenceable(64) %10, ptr noundef %9, ptr noundef nonnull align 8 dereferenceable(8) %3, ptr noundef nonnull align 8 dereferenceable(8) %4)
          to label %11 unwind label %40

11:                                               ; preds = %2
  %12 = load ptr, ptr %3, align 8, !tbaa !58
  call void @llvm.lifetime.end.p0(i64 8, ptr nonnull %4) #19
  call void @llvm.lifetime.end.p0(i64 8, ptr nonnull %3) #19
  %.not.i = icmp eq ptr %12, null
  br i1 %.not.i, label %16, label %_ZN11ast_manager7inc_refEP3ast.exit.i

_ZN11ast_manager7inc_refEP3ast.exit.i:            ; preds = %11
  %13 = getelementptr inbounds nuw i8, ptr %12, i64 8
  %14 = load i32, ptr %13, align 4, !tbaa !18
  %15 = add i32 %14, 1
  store i32 %15, ptr %13, align 4, !tbaa !18
  br label %16

16:                                               ; preds = %11, %_ZN11ast_manager7inc_refEP3ast.exit.i
  store ptr %12, ptr %5, align 8, !tbaa !11
  %17 = load ptr, ptr %0, align 8, !tbaa !61
  %18 = invoke noundef ptr @_ZN11ast_manager17update_quantifierEP10quantifierP4expr(ptr noundef nonnull align 8 dereferenceable(976) %17, ptr noundef nonnull %1, ptr noundef %12)
          to label %19 unwind label %40

19:                                               ; preds = %16
  %.not.i5 = icmp eq ptr %18, null
  br i1 %.not.i5, label %23, label %_ZN11ast_manager7inc_refEP3ast.exit.i6

_ZN11ast_manager7inc_refEP3ast.exit.i6:           ; preds = %19
  %20 = getelementptr inbounds nuw i8, ptr %18, i64 8
  %21 = load i32, ptr %20, align 4, !tbaa !18
  %22 = add i32 %21, 1
  store i32 %22, ptr %20, align 4, !tbaa !18
  br label %23

23:                                               ; preds = %_ZN11ast_manager7inc_refEP3ast.exit.i6, %19
  br i1 %.not.i, label %30, label %24

24:                                               ; preds = %23
  %25 = getelementptr inbounds nuw i8, ptr %12, i64 8
  %26 = load i32, ptr %25, align 4, !tbaa !18
  %27 = add i32 %26, -1
  store i32 %27, ptr %25, align 4, !tbaa !18
  %28 = icmp eq i32 %27, 0
  br i1 %28, label %29, label %30

29:                                               ; preds = %24
  invoke void @_ZN11ast_manager11delete_nodeEP3ast(ptr noundef nonnull align 8 dereferenceable(976) %6, ptr noundef nonnull %12)
          to label %30 unwind label %40

30:                                               ; preds = %24, %23, %29
  store ptr %18, ptr %5, align 8, !tbaa !11
  invoke void @_ZN8expr_map6insertEP4exprS1_P3app(ptr noundef nonnull align 8 dereferenceable(64) %10, ptr noundef nonnull %1, ptr noundef %18, ptr noundef null)
          to label %_ZN7bit2int12cache_resultEP4exprS1_.exit unwind label %40

_ZN7bit2int12cache_resultEP4exprS1_.exit:         ; preds = %30
  br i1 %.not.i5, label %_ZN7obj_refI4expr11ast_managerED2Ev.exit, label %31

31:                                               ; preds = %_ZN7bit2int12cache_resultEP4exprS1_.exit
  %32 = getelementptr inbounds nuw i8, ptr %18, i64 8
  %33 = load i32, ptr %32, align 4, !tbaa !18
  %34 = add i32 %33, -1
  store i32 %34, ptr %32, align 4, !tbaa !18
  %35 = icmp eq i32 %34, 0
  br i1 %35, label %36, label %_ZN7obj_refI4expr11ast_managerED2Ev.exit

36:                                               ; preds = %31
  invoke void @_ZN11ast_manager11delete_nodeEP3ast(ptr noundef nonnull align 8 dereferenceable(976) %6, ptr noundef nonnull %18)
          to label %_ZN7obj_refI4expr11ast_managerED2Ev.exit unwind label %37

37:                                               ; preds = %36
  %38 = landingpad { ptr, i32 }
          catch ptr null
  %39 = extractvalue { ptr, i32 } %38, 0
  call void @__clang_call_terminate(ptr %39) #20
  unreachable

_ZN7obj_refI4expr11ast_managerED2Ev.exit:         ; preds = %_ZN7bit2int12cache_resultEP4exprS1_.exit, %31, %36
  call void @llvm.lifetime.end.p0(i64 16, ptr nonnull %5) #19
  ret void

40:                                               ; preds = %30, %29, %2, %16
  %41 = landingpad { ptr, i32 }
          cleanup
  call void @_ZN7obj_refI4expr11ast_managerED2Ev(ptr noundef nonnull align 8 dereferenceable(16) %5) #19
  call void @llvm.lifetime.end.p0(i64 16, ptr nonnull %5) #19
  resume { ptr, i32 } %41
}